; Function Attrs: nounwind uwtable
define dso_local void @EventTriggerCollectAlterDefPrivs(ptr noundef %0) local_unnamed_addr #0 {
  %2 = load ptr, ptr @currentEventTriggerState, align 8
  %.not = icmp eq ptr %2, null
  br i1 %.not, label %26, label %3

3:                                                ; preds = %1
  %4 = getelementptr inbounds nuw i8, ptr %2, i64 28
  %5 = load i8, ptr %4, align 4, !range !9, !noundef !10
  %6 = trunc nuw i8 %5 to i1
  br i1 %6, label %26, label %7

7:                                                ; preds = %3
  %8 = load ptr, ptr %2, align 8
  %9 = load ptr, ptr @CurrentMemoryContext, align 8
  store ptr %8, ptr @CurrentMemoryContext, align 8
  %10 = tail call ptr @palloc0(i64 noundef 56) #16
  store i32 4, ptr %10, align 8
  %11 = getelementptr inbounds nuw i8, ptr %0, i64 16
  %12 = load ptr, ptr %11, align 8
  %13 = getelementptr inbounds nuw i8, ptr %12, i64 12
  %14 = load i32, ptr %13, align 4
  %15 = getelementptr inbounds nuw i8, ptr %10, i64 16
  store i32 %14, ptr %15, align 8
  %16 = load i8, ptr @creating_extension, align 1, !range !9, !noundef !10
  %17 = getelementptr inbounds nuw i8, ptr %10, i64 4
  store i8 %16, ptr %17, align 4
  %18 = tail call ptr @copyObjectImpl(ptr noundef %0) #16
  %19 = getelementptr inbounds nuw i8, ptr %10, i64 8
  store ptr %18, ptr %19, align 8
  %20 = load ptr, ptr @currentEventTriggerState, align 8
  %21 = getelementptr inbounds nuw i8, ptr %20, i64 40
  %22 = load ptr, ptr %21, align 8
  %23 = tail call ptr @lappend(ptr noundef %22, ptr noundef nonnull %10) #16
  %24 = load ptr, ptr @currentEventTriggerState, align 8
  %25 = getelementptr inbounds nuw i8, ptr %24, i64 40
  store ptr %23, ptr %25, align 8
  store ptr %9, ptr @CurrentMemoryContext, align 8
  br label %26

26:                                               ; preds = %1, %3, %7
  ret void
}